target datalayout = "e-m:e-p270:32:32-p271:32:32-p272:64:64-i64:64-i128:128-f80:128-n8:16:32:64-S128"
target triple = "x86_64-pc-linux-gnu"

; Function Attrs: cold nounwind optsize uwtable
define internal i32 @vidc2linear(i8 noundef zeroext %0) #0 {
  %2 = alloca i8, align 1
  %3 = alloca i32, align 4
  store i8 %0, ptr %2, align 1, !tbaa !67
  call void @llvm.lifetime.start.p0(i64 4, ptr %3) #8
  %4 = load i8, ptr %2, align 1, !tbaa !67
  %5 = zext i8 %4 to i32
  %6 = and i32 %5, 30
  %7 = ashr i32 %6, 1
  %8 = shl i32 %7, 3
  %9 = add nsw i32 %8, 132
  store i32 %9, ptr %3, align 4, !tbaa !32
  %10 = load i8, ptr %2, align 1, !tbaa !67
  %11 = zext i8 %10 to i32
  %12 = and i32 %11, 224
  %13 = lshr i32 %12, 5
  %14 = load i32, ptr %3, align 4, !tbaa !32
  %15 = shl i32 %14, %13
  store i32 %15, ptr %3, align 4, !tbaa !32
  %16 = load i8, ptr %2, align 1, !tbaa !67
  %17 = zext i8 %16 to i32
  %18 = and i32 %17, 1
  %19 = icmp ne i32 %18, 0
  br i1 %19, label %20, label %23

20:                                               ; preds = %1
  %21 = load i32, ptr %3, align 4, !tbaa !32
  %22 = sub nsw i32 132, %21
  br label %26

23:                                               ; preds = %1
  %24 = load i32, ptr %3, align 4, !tbaa !32
  %25 = sub nsw i32 %24, 132
  br label %26

26:                                               ; preds = %23, %20
  %27 = phi i32 [ %22, %20 ], [ %25, %23 ]
  call void @llvm.lifetime.end.p0(i64 4, ptr %3) #8
  ret i32 %27
}