; Function Attrs: cold mustprogress nofree norecurse nosync nounwind optsize willreturn memory(none) uwtable
define internal range(i32 -32124, 32125) i32 @vidc2linear(i8 noundef zeroext %0) #3 {
  %2 = zext i8 %0 to i32
  %3 = shl nuw nsw i32 %2, 2
  %4 = and i32 %3, 120
  %5 = or disjoint i32 %4, 132
  %6 = lshr i32 %2, 5
  %7 = shl nuw nsw i32 %5, %6
  %8 = and i32 %2, 1
  %.not = icmp eq i32 %8, 0
  %9 = sub nsw i32 132, %7
  %10 = add nsw i32 %7, -132
  %11 = select i1 %.not, i32 %10, i32 %9
  ret i32 %11
}